target datalayout = "e-m:e-p270:32:32-p271:32:32-p272:64:64-i64:64-i128:128-f80:128-n8:16:32:64-S128"
target triple = "x86_64-pc-linux-gnu"

%struct.H5FL_reg_head_t = type { i8, i32, i32, ptr, i64, ptr }
%struct.H5O_t = type { %struct.H5C_cache_entry_t, i64, i64, i8, i64, i8, i32, i8, i8, i64, i64, i64, i64, i32, i32, i64, i64, ptr, i64, i64, i64, i64, ptr, i8, ptr }
%struct.H5C_cache_entry_t = type { ptr, i64, i64, ptr, i8, ptr, i8, i8, i8, i8, i32, i8, i8, i8, i8, i8, i32, ptr, i32, i32, i32, i32, i32, i8, i8, ptr, ptr, ptr, ptr, ptr, ptr, i8, i32, i8, i64, ptr, i64, i64, i32, i8, i32, i32, i8, ptr, ptr, ptr }

@H5O_obj_ver_bounds = constant [6 x i32] [i32 1, i32 2, i32 2, i32 2, i32 2, i32 2], align 16
@H5_H5O_t_reg_free_list = global %struct.H5FL_reg_head_t { i8 0, i32 0, i32 0, ptr @.str, i64 416, ptr null }, align 8
@.str.4 = private unnamed_addr constant [100 x i8] c"generated/home/dtcxzyw/WorkSpace/Projects/compilers/llvm-opt-benchmark/bench/hdf5/hdf5/src/H5Oint.c\00", align 1
@H5E_OHDR_g = external global i64, align 8
@H5E_BADVALUE_g = external global i64, align 8
@H5E_CANTFREE_g = external global i64, align 8
@.str.7 = private unnamed_addr constant [27 x i8] c"can't delete object header\00", align 1
@__func__.H5O_create_ohdr = private unnamed_addr constant [16 x i8] c"H5O_create_ohdr\00", align 1
@.str.8 = private unnamed_addr constant [24 x i8] c"no write intent on file\00", align 1
@H5E_RESOURCE_g = external global i64, align 8
@H5E_NOSPACE_g = external global i64, align 8
@.str.9 = private unnamed_addr constant [25 x i8] c"memory allocation failed\00", align 1
@H5E_PLIST_g = external global i64, align 8
@H5E_BADTYPE_g = external global i64, align 8
@.str.10 = private unnamed_addr constant [20 x i8] c"not a property list\00", align 1
@H5P_LST_DATASET_CREATE_ID_g = external global i64, align 8
@H5E_CANTGET_g = external global i64, align 8
@.str.11 = private unnamed_addr constant [30 x i8] c"can't get object header flags\00", align 1
@.str.12 = private unnamed_addr constant [20 x i8] c"object header flags\00", align 1
@H5E_CANTSET_g = external global i64, align 8
@.str.13 = private unnamed_addr constant [35 x i8] c"can't set version of object header\00", align 1
@__func__.H5O__set_version = private unnamed_addr constant [17 x i8] c"H5O__set_version\00", align 1
@H5E_BADRANGE_g = external global i64, align 8
@.str.91 = private unnamed_addr constant [36 x i8] c"object header version out of bounds\00", align 1

; Function Attrs: nounwind uwtable
define internal i32 @H5O__set_version(ptr noundef %0, ptr noundef %1, i8 noundef zeroext %2, i1 noundef zeroext %3) #0 {
  %5 = alloca ptr, align 8
  %6 = alloca ptr, align 8
  %7 = alloca i8, align 1
  %8 = alloca i8, align 1
  %9 = alloca i8, align 1
  %10 = alloca i32, align 4
  %11 = alloca i8, align 1
  store ptr %0, ptr %5, align 8
  store ptr %1, ptr %6, align 8
  store i8 %2, ptr %7, align 1
  %12 = zext i1 %3 to i8
  store i8 %12, ptr %8, align 1
  store i32 0, ptr %10, align 4
  store i8 0, ptr %11, align 1
  %13 = load i8, ptr %8, align 1
  %14 = trunc i8 %13 to i1
  br i1 %14, label %20, label %15

15:                                               ; preds = %4
  %16 = load i8, ptr %7, align 1
  %17 = zext i8 %16 to i32
  %18 = and i32 %17, 4
  %19 = icmp ne i32 %18, 0
  br i1 %19, label %20, label %21

20:                                               ; preds = %15, %4
  store i8 2, ptr %9, align 1
  br label %22

21:                                               ; preds = %15
  store i8 1, ptr %9, align 1
  br label %22

22:                                               ; preds = %21, %20
  %23 = load i8, ptr %9, align 1
  %24 = zext i8 %23 to i32
  %25 = load ptr, ptr %5, align 8
  %26 = call i32 @H5F_get_low_bound(ptr noundef %25)
  %27 = sext i32 %26 to i64
  %28 = getelementptr inbounds [6 x i32], ptr @H5O_obj_ver_bounds, i64 0, i64 %27
  %29 = load i32, ptr %28, align 4
  %30 = trunc i32 %29 to i8
  %31 = zext i8 %30 to i32
  %32 = icmp sgt i32 %24, %31
  br i1 %32, label %33, label %36

33:                                               ; preds = %22
  %34 = load i8, ptr %9, align 1
  %35 = zext i8 %34 to i32
  br label %44

36:                                               ; preds = %22
  %37 = load ptr, ptr %5, align 8
  %38 = call i32 @H5F_get_low_bound(ptr noundef %37)
  %39 = sext i32 %38 to i64
  %40 = getelementptr inbounds [6 x i32], ptr @H5O_obj_ver_bounds, i64 0, i64 %39
  %41 = load i32, ptr %40, align 4
  %42 = trunc i32 %41 to i8
  %43 = zext i8 %42 to i32
  br label %44

44:                                               ; preds = %36, %33
  %45 = phi i32 [ %35, %33 ], [ %43, %36 ]
  %46 = trunc i32 %45 to i8
  store i8 %46, ptr %9, align 1
  %47 = load i8, ptr %9, align 1
  %48 = zext i8 %47 to i32
  %49 = load ptr, ptr %5, align 8
  %50 = call i32 @H5F_get_high_bound(ptr noundef %49)
  %51 = sext i32 %50 to i64
  %52 = getelementptr inbounds [6 x i32], ptr @H5O_obj_ver_bounds, i64 0, i64 %51
  %53 = load i32, ptr %52, align 4
  %54 = icmp ugt i32 %48, %53
  br i1 %54, label %55, label %70

55:                                               ; preds = %44
  br label %56

56:                                               ; preds = %55
  br label %57

57:                                               ; preds = %56
  br label %58

58:                                               ; preds = %57
  %59 = load i64, ptr @H5E_OHDR_g, align 8
  %60 = load i64, ptr @H5E_BADRANGE_g, align 8
  %61 = call i32 (ptr, ptr, i32, i64, i64, ptr, ...) @H5E_printf_stack(ptr noundef @.str.4, ptr noundef @__func__.H5O__set_version, i32 noundef 238, i64 noundef %59, i64 noundef %60, ptr noundef @.str.91)
  br label %62

62:                                               ; preds = %58
  store i8 1, ptr %11, align 1
  %63 = load i8, ptr %11, align 1
  %64 = trunc i8 %63 to i1
  %65 = zext i1 %64 to i8
  store i8 %65, ptr %11, align 1
  br label %66

66:                                               ; preds = %62
  br label %67

67:                                               ; preds = %66
  store i32 -1, ptr %10, align 4
  br label %74

68:                                               ; No predecessors!
  br label %69

69:                                               ; preds = %68
  br label %70

70:                                               ; preds = %69, %44
  %71 = load i8, ptr %9, align 1
  %72 = load ptr, ptr %6, align 8
  %73 = getelementptr inbounds %struct.H5O_t, ptr %72, i32 0, i32 7
  store i8 %71, ptr %73, align 8
  br label %74

74:                                               ; preds = %70, %67
  %75 = load i32, ptr %10, align 4
  ret i32 %75
}

; Function Attrs: nounwind uwtable
define ptr @H5O_create_ohdr(ptr noundef %0, i64 noundef %1) #0 {
  %3 = alloca ptr, align 8
  %4 = alloca i64, align 8
  %5 = alloca ptr, align 8
  %6 = alloca ptr, align 8
  %7 = alloca i8, align 1
  %8 = alloca ptr, align 8
  %9 = alloca i8, align 1
  store ptr %0, ptr %3, align 8
  store i64 %1, ptr %4, align 8
  store ptr null, ptr %6, align 8
  store ptr null, ptr %8, align 8
  store i8 0, ptr %9, align 1
  %10 = load ptr, ptr %3, align 8
  %11 = call i32 @H5F_get_intent(ptr noundef %10)
  %12 = and i32 %11, 1
  %13 = icmp eq i32 0, %12
  br i1 %13, label %14, label %29

14:                                               ; preds = %2
  br label %15

15:                                               ; preds = %14
  br label %16

16:                                               ; preds = %15
  br label %17

17:                                               ; preds = %16
  %18 = load i64, ptr @H5E_OHDR_g, align 8
  %19 = load i64, ptr @H5E_BADVALUE_g, align 8
  %20 = call i32 (ptr, ptr, i32, i64, i64, ptr, ...) @H5E_printf_stack(ptr noundef @.str.4, ptr noundef @__func__.H5O_create_ohdr, i32 noundef 319, i64 noundef %18, i64 noundef %19, ptr noundef @.str.8)
  br label %21

21:                                               ; preds = %17
  store i8 1, ptr %9, align 1
  %22 = load i8, ptr %9, align 1
  %23 = trunc i8 %22 to i1
  %24 = zext i1 %23 to i8
  store i8 %24, ptr %9, align 1
  br label %25

25:                                               ; preds = %21
  br label %26

26:                                               ; preds = %25
  store ptr null, ptr %8, align 8
  br label %139

27:                                               ; No predecessors!
  br label %28

28:                                               ; preds = %27
  br label %29

29:                                               ; preds = %28, %2
  %30 = call noalias ptr @H5FL_reg_calloc(ptr noundef @H5_H5O_t_reg_free_list)
  store ptr %30, ptr %6, align 8
  %31 = load ptr, ptr %6, align 8
  %32 = icmp eq ptr null, %31
  br i1 %32, label %33, label %48

33:                                               ; preds = %29
  br label %34

34:                                               ; preds = %33
  br label %35

35:                                               ; preds = %34
  br label %36

36:                                               ; preds = %35
  %37 = load i64, ptr @H5E_RESOURCE_g, align 8
  %38 = load i64, ptr @H5E_NOSPACE_g, align 8
  %39 = call i32 (ptr, ptr, i32, i64, i64, ptr, ...) @H5E_printf_stack(ptr noundef @.str.4, ptr noundef @__func__.H5O_create_ohdr, i32 noundef 323, i64 noundef %37, i64 noundef %38, ptr noundef @.str.9)
  br label %40

40:                                               ; preds = %36
  store i8 1, ptr %9, align 1
  %41 = load i8, ptr %9, align 1
  %42 = trunc i8 %41 to i1
  %43 = zext i1 %42 to i8
  store i8 %43, ptr %9, align 1
  br label %44

44:                                               ; preds = %40
  br label %45

45:                                               ; preds = %44
  store ptr null, ptr %8, align 8
  br label %139

46:                                               ; No predecessors!
  br label %47

47:                                               ; preds = %46
  br label %48

48:                                               ; preds = %47, %29
  %49 = load i64, ptr %4, align 8
  %50 = call ptr @H5I_object(i64 noundef %49)
  store ptr %50, ptr %5, align 8
  %51 = load ptr, ptr %5, align 8
  %52 = icmp eq ptr null, %51
  br i1 %52, label %53, label %68

53:                                               ; preds = %48
  br label %54

54:                                               ; preds = %53
  br label %55

55:                                               ; preds = %54
  br label %56

56:                                               ; preds = %55
  %57 = load i64, ptr @H5E_PLIST_g, align 8
  %58 = load i64, ptr @H5E_BADTYPE_g, align 8
  %59 = call i32 (ptr, ptr, i32, i64, i64, ptr, ...) @H5E_printf_stack(ptr noundef @.str.4, ptr noundef @__func__.H5O_create_ohdr, i32 noundef 327, i64 noundef %57, i64 noundef %58, ptr noundef @.str.10)
  br label %60

60:                                               ; preds = %56
  store i8 1, ptr %9, align 1
  %61 = load i8, ptr %9, align 1
  %62 = trunc i8 %61 to i1
  %63 = zext i1 %62 to i8
  store i8 %63, ptr %9, align 1
  br label %64

64:                                               ; preds = %60
  br label %65

65:                                               ; preds = %64
  store ptr null, ptr %8, align 8
  br label %139

66:                                               ; No predecessors!
  br label %67

67:                                               ; preds = %66
  br label %68

68:                                               ; preds = %67, %48
  %69 = load i64, ptr @H5P_LST_DATASET_CREATE_ID_g, align 8
  %70 = load i64, ptr %4, align 8
  %71 = icmp eq i64 %69, %70
  br i1 %71, label %72, label %91

72:                                               ; preds = %68
  %73 = call i32 @H5CX_get_ohdr_flags(ptr noundef %7)
  %74 = icmp slt i32 %73, 0
  br i1 %74, label %75, label %90

75:                                               ; preds = %72
  br label %76

76:                                               ; preds = %75
  br label %77

77:                                               ; preds = %76
  br label %78

78:                                               ; preds = %77
  %79 = load i64, ptr @H5E_PLIST_g, align 8
  %80 = load i64, ptr @H5E_CANTGET_g, align 8
  %81 = call i32 (ptr, ptr, i32, i64, i64, ptr, ...) @H5E_printf_stack(ptr noundef @.str.4, ptr noundef @__func__.H5O_create_ohdr, i32 noundef 334, i64 noundef %79, i64 noundef %80, ptr noundef @.str.11)
  br label %82

82:                                               ; preds = %78
  store i8 1, ptr %9, align 1
  %83 = load i8, ptr %9, align 1
  %84 = trunc i8 %83 to i1
  %85 = zext i1 %84 to i8
  store i8 %85, ptr %9, align 1
  br label %86

86:                                               ; preds = %82
  br label %87

87:                                               ; preds = %86
  store ptr null, ptr %8, align 8
  br label %139

88:                                               ; No predecessors!
  br label %89

89:                                               ; preds = %88
  br label %90

90:                                               ; preds = %89, %72
  br label %111

91:                                               ; preds = %68
  %92 = load ptr, ptr %5, align 8
  %93 = call i32 @H5P_get(ptr noundef %92, ptr noundef @.str.12, ptr noundef %7)
  %94 = icmp slt i32 %93, 0
  br i1 %94, label %95, label %110

95:                                               ; preds = %91
  br label %96

96:                                               ; preds = %95
  br label %97

97:                                               ; preds = %96
  br label %98

98:                                               ; preds = %97
  %99 = load i64, ptr @H5E_PLIST_g, align 8
  %100 = load i64, ptr @H5E_CANTGET_g, align 8
  %101 = call i32 (ptr, ptr, i32, i64, i64, ptr, ...) @H5E_printf_stack(ptr noundef @.str.4, ptr noundef @__func__.H5O_create_ohdr, i32 noundef 338, i64 noundef %99, i64 noundef %100, ptr noundef @.str.11)
  br label %102

102:                                              ; preds = %98
  store i8 1, ptr %9, align 1
  %103 = load i8, ptr %9, align 1
  %104 = trunc i8 %103 to i1
  %105 = zext i1 %104 to i8
  store i8 %105, ptr %9, align 1
  br label %106

106:                                              ; preds = %102
  br label %107

107:                                              ; preds = %106
  store ptr null, ptr %8, align 8
  br label %139

108:                                              ; No predecessors!
  br label %109

109:                                              ; preds = %108
  br label %110

110:                                              ; preds = %109, %91
  br label %111

111:                                              ; preds = %110, %90
  %112 = load ptr, ptr %3, align 8
  %113 = load ptr, ptr %6, align 8
  %114 = load i8, ptr %7, align 1
  %115 = load ptr, ptr %3, align 8
  %116 = call zeroext i1 @H5F_store_msg_crt_idx(ptr noundef %115)
  %117 = call i32 @H5O__set_version(ptr noundef %112, ptr noundef %113, i8 noundef zeroext %114, i1 noundef zeroext %116)
  %118 = icmp slt i32 %117, 0
  br i1 %118, label %119, label %134

119:                                              ; preds = %111
  br label %120

120:                                              ; preds = %119
  br label %121

121:                                              ; preds = %120
  br label %122

122:                                              ; preds = %121
  %123 = load i64, ptr @H5E_OHDR_g, align 8
  %124 = load i64, ptr @H5E_CANTSET_g, align 8
  %125 = call i32 (ptr, ptr, i32, i64, i64, ptr, ...) @H5E_printf_stack(ptr noundef @.str.4, ptr noundef @__func__.H5O_create_ohdr, i32 noundef 342, i64 noundef %123, i64 noundef %124, ptr noundef @.str.13)
  br label %126

126:                                              ; preds = %122
  store i8 1, ptr %9, align 1
  %127 = load i8, ptr %9, align 1
  %128 = trunc i8 %127 to i1
  %129 = zext i1 %128 to i8
  store i8 %129, ptr %9, align 1
  br label %130

130:                                              ; preds = %126
  br label %131

131:                                              ; preds = %130
  store ptr null, ptr %8, align 8
  br label %139

132:                                              ; No predecessors!
  br label %133

133:                                              ; preds = %132
  br label %134

134:                                              ; preds = %133, %111
  %135 = load i8, ptr %7, align 1
  %136 = load ptr, ptr %6, align 8
  %137 = getelementptr inbounds %struct.H5O_t, ptr %136, i32 0, i32 8
  store i8 %135, ptr %137, align 1
  %138 = load ptr, ptr %6, align 8
  store ptr %138, ptr %8, align 8
  br label %139

139:                                              ; preds = %134, %131, %107, %87, %65, %45, %26
  %140 = load ptr, ptr %8, align 8
  %141 = icmp eq ptr null, %140
  br i1 %141, label %142, label %162

142:                                              ; preds = %139
  %143 = load ptr, ptr %6, align 8
  %144 = icmp ne ptr null, %143
  br i1 %144, label %145, label %162

145:                                              ; preds = %142
  %146 = load ptr, ptr %6, align 8
  %147 = call i32 @H5O__free(ptr noundef %146, i1 noundef zeroext true)
  %148 = icmp slt i32 %147, 0
  br i1 %148, label %149, label %162

149:                                              ; preds = %145
  br label %150

150:                                              ; preds = %149
  br label %151

151:                                              ; preds = %150
  br label %152

152:                                              ; preds = %151
  %153 = load i64, ptr @H5E_OHDR_g, align 8
  %154 = load i64, ptr @H5E_CANTFREE_g, align 8
  %155 = call i32 (ptr, ptr, i32, i64, i64, ptr, ...) @H5E_printf_stack(ptr noundef @.str.4, ptr noundef @__func__.H5O_create_ohdr, i32 noundef 350, i64 noundef %153, i64 noundef %154, ptr noundef @.str.7)
  br label %156

156:                                              ; preds = %152
  store i8 1, ptr %9, align 1
  %157 = load i8, ptr %9, align 1
  %158 = trunc i8 %157 to i1
  %159 = zext i1 %158 to i8
  store i8 %159, ptr %9, align 1
  br label %160

160:                                              ; preds = %156
  store ptr null, ptr %8, align 8
  br label %161

161:                                              ; preds = %160
  br label %162

162:                                              ; preds = %161, %145, %142, %139
  %163 = load ptr, ptr %8, align 8
  ret ptr %163
}