; Function Attrs: nounwind uwtable
define ptr @H5O_create_ohdr(ptr noundef %0, i64 noundef %1) local_unnamed_addr #1 {
  %3 = alloca i8, align 1
  %4 = tail call i32 @H5F_get_intent(ptr noundef %0) #11
  %5 = and i32 %4, 1
  %6 = icmp eq i32 %5, 0
  br i1 %6, label %7, label %11

7:                                                ; preds = %2
  %8 = load i64, ptr @H5E_OHDR_g, align 8
  %9 = load i64, ptr @H5E_BADVALUE_g, align 8
  %10 = tail call i32 (ptr, ptr, i32, i64, i64, ptr, ...) @H5E_printf_stack(ptr noundef nonnull @.str.4, ptr noundef nonnull @__func__.H5O_create_ohdr, i32 noundef 319, i64 noundef %8, i64 noundef %9, ptr noundef nonnull @.str.8) #11
  br label %.thread

11:                                               ; preds = %2
  %12 = tail call noalias ptr @H5FL_reg_calloc(ptr noundef nonnull @H5_H5O_t_reg_free_list) #11
  %13 = icmp eq ptr %12, null
  br i1 %13, label %14, label %18

14:                                               ; preds = %11
  %15 = load i64, ptr @H5E_RESOURCE_g, align 8
  %16 = load i64, ptr @H5E_NOSPACE_g, align 8
  %17 = tail call i32 (ptr, ptr, i32, i64, i64, ptr, ...) @H5E_printf_stack(ptr noundef nonnull @.str.4, ptr noundef nonnull @__func__.H5O_create_ohdr, i32 noundef 323, i64 noundef %15, i64 noundef %16, ptr noundef nonnull @.str.9) #11
  br label %.thread

18:                                               ; preds = %11
  %19 = tail call ptr @H5I_object(i64 noundef %1) #11
  %20 = icmp eq ptr %19, null
  br i1 %20, label %21, label %25

21:                                               ; preds = %18
  %22 = load i64, ptr @H5E_PLIST_g, align 8
  %23 = load i64, ptr @H5E_BADTYPE_g, align 8
  %24 = tail call i32 (ptr, ptr, i32, i64, i64, ptr, ...) @H5E_printf_stack(ptr noundef nonnull @.str.4, ptr noundef nonnull @__func__.H5O_create_ohdr, i32 noundef 327, i64 noundef %22, i64 noundef %23, ptr noundef nonnull @.str.10) #11
  br label %77

25:                                               ; preds = %18
  %26 = load i64, ptr @H5P_LST_DATASET_CREATE_ID_g, align 8
  %27 = icmp eq i64 %26, %1
  br i1 %27, label %28, label %35

28:                                               ; preds = %25
  %29 = call i32 @H5CX_get_ohdr_flags(ptr noundef nonnull %3) #11
  %30 = icmp slt i32 %29, 0
  br i1 %30, label %31, label %42

31:                                               ; preds = %28
  %32 = load i64, ptr @H5E_PLIST_g, align 8
  %33 = load i64, ptr @H5E_CANTGET_g, align 8
  %34 = call i32 (ptr, ptr, i32, i64, i64, ptr, ...) @H5E_printf_stack(ptr noundef nonnull @.str.4, ptr noundef nonnull @__func__.H5O_create_ohdr, i32 noundef 334, i64 noundef %32, i64 noundef %33, ptr noundef nonnull @.str.11) #11
  br label %77

35:                                               ; preds = %25
  %36 = call i32 @H5P_get(ptr noundef nonnull %19, ptr noundef nonnull @.str.12, ptr noundef nonnull %3) #11
  %37 = icmp slt i32 %36, 0
  br i1 %37, label %38, label %42

38:                                               ; preds = %35
  %39 = load i64, ptr @H5E_PLIST_g, align 8
  %40 = load i64, ptr @H5E_CANTGET_g, align 8
  %41 = call i32 (ptr, ptr, i32, i64, i64, ptr, ...) @H5E_printf_stack(ptr noundef nonnull @.str.4, ptr noundef nonnull @__func__.H5O_create_ohdr, i32 noundef 338, i64 noundef %39, i64 noundef %40, ptr noundef nonnull @.str.11) #11
  br label %77

42:                                               ; preds = %35, %28
  %43 = load i8, ptr %3, align 1
  %44 = call zeroext i1 @H5F_store_msg_crt_idx(ptr noundef %0) #11
  %45 = and i8 %43, 4
  %.not.i = icmp ne i8 %45, 0
  %or.cond.not.i = or i1 %44, %.not.i
  %.011.i = select i1 %or.cond.not.i, i32 2, i32 1
  %46 = call i32 @H5F_get_low_bound(ptr noundef %0) #11
  %47 = sext i32 %46 to i64
  %48 = getelementptr inbounds [6 x i32], ptr @H5O_obj_ver_bounds, i64 0, i64 %47
  %49 = load i32, ptr %48, align 4
  %50 = and i32 %49, 255
  %51 = icmp ugt i32 %.011.i, %50
  br i1 %51, label %58, label %52

52:                                               ; preds = %42
  %53 = call i32 @H5F_get_low_bound(ptr noundef %0) #11
  %54 = sext i32 %53 to i64
  %55 = getelementptr inbounds [6 x i32], ptr @H5O_obj_ver_bounds, i64 0, i64 %54
  %56 = load i32, ptr %55, align 4
  %57 = and i32 %56, 255
  br label %58

58:                                               ; preds = %52, %42
  %59 = phi i32 [ %57, %52 ], [ %.011.i, %42 ]
  %60 = call i32 @H5F_get_high_bound(ptr noundef %0) #11
  %61 = sext i32 %60 to i64
  %62 = getelementptr inbounds [6 x i32], ptr @H5O_obj_ver_bounds, i64 0, i64 %61
  %63 = load i32, ptr %62, align 4
  %64 = icmp ugt i32 %59, %63
  br i1 %64, label %65, label %72

65:                                               ; preds = %58
  %66 = load i64, ptr @H5E_OHDR_g, align 8
  %67 = load i64, ptr @H5E_BADRANGE_g, align 8
  %68 = call i32 (ptr, ptr, i32, i64, i64, ptr, ...) @H5E_printf_stack(ptr noundef nonnull @.str.4, ptr noundef nonnull @__func__.H5O__set_version, i32 noundef 238, i64 noundef %66, i64 noundef %67, ptr noundef nonnull @.str.91) #11
  %69 = load i64, ptr @H5E_OHDR_g, align 8
  %70 = load i64, ptr @H5E_CANTSET_g, align 8
  %71 = call i32 (ptr, ptr, i32, i64, i64, ptr, ...) @H5E_printf_stack(ptr noundef nonnull @.str.4, ptr noundef nonnull @__func__.H5O_create_ohdr, i32 noundef 342, i64 noundef %69, i64 noundef %70, ptr noundef nonnull @.str.13) #11
  br label %77

72:                                               ; preds = %58
  %73 = trunc nuw i32 %59 to i8
  %74 = getelementptr inbounds i8, ptr %12, i64 288
  store i8 %73, ptr %74, align 8
  %75 = load i8, ptr %3, align 1
  %76 = getelementptr inbounds i8, ptr %12, i64 289
  store i8 %75, ptr %76, align 1
  br label %.thread

77:                                               ; preds = %21, %31, %38, %65
  %78 = call i32 @H5O__free(ptr noundef nonnull %12, i1 zeroext poison)
  %79 = icmp slt i32 %78, 0
  br i1 %79, label %80, label %.thread

80:                                               ; preds = %77
  %81 = load i64, ptr @H5E_OHDR_g, align 8
  %82 = load i64, ptr @H5E_CANTFREE_g, align 8
  %83 = call i32 (ptr, ptr, i32, i64, i64, ptr, ...) @H5E_printf_stack(ptr noundef nonnull @.str.4, ptr noundef nonnull @__func__.H5O_create_ohdr, i32 noundef 350, i64 noundef %81, i64 noundef %82, ptr noundef nonnull @.str.7) #11
  br label %.thread

.thread:                                          ; preds = %14, %7, %72, %80, %77
  %.1 = phi ptr [ null, %80 ], [ null, %77 ], [ %12, %72 ], [ null, %14 ], [ null, %7 ]
  ret ptr %.1
}